; Function Attrs: nounwind sspstrong uwtable
define dso_local void @v9fs_rwalk(ptr noundef %0, ptr noundef writeonly captures(address_is_null) %1, ptr noundef writeonly captures(address_is_null) %2) local_unnamed_addr #1 {
  %4 = alloca i16, align 2
  call void @llvm.lifetime.start.p0(i64 2, ptr nonnull %4) #14
  store i16 0, ptr %4, align 2, !annotation !4
  tail call void @v9fs_req_recv(ptr noundef %0, i8 noundef zeroext 111)
  %5 = load ptr, ptr %0, align 8
  %6 = getelementptr inbounds nuw i8, ptr %0, i64 40
  %7 = load i64, ptr %6, align 8
  %8 = getelementptr inbounds nuw i8, ptr %0, i64 56
  %9 = load i64, ptr %8, align 8
  %10 = add i64 %9, %7
  call void @qtest_memread(ptr noundef %5, i64 noundef %10, ptr noundef nonnull %4, i64 noundef 2) #14
  %11 = load i64, ptr %8, align 8
  %12 = add i64 %11, 2
  store i64 %12, ptr %8, align 8
  %.not = icmp eq ptr %1, null
  br i1 %.not, label %15, label %13

13:                                               ; preds = %3
  %14 = load i16, ptr %4, align 2
  store i16 %14, ptr %1, align 2
  br label %15

15:                                               ; preds = %13, %3
  %.not10 = icmp eq ptr %2, null
  br i1 %.not10, label %30, label %16

16:                                               ; preds = %15
  %17 = load i16, ptr %4, align 2
  %18 = zext i16 %17 to i64
  %19 = mul nuw nsw i64 %18, 13
  %20 = call noalias ptr @g_malloc(i64 noundef %19) #16
  store ptr %20, ptr %2, align 8
  %21 = load i16, ptr %4, align 2
  %22 = zext i16 %21 to i64
  %23 = mul nuw nsw i64 %22, 13
  %24 = load ptr, ptr %0, align 8
  %25 = load i64, ptr %6, align 8
  %26 = load i64, ptr %8, align 8
  %27 = add i64 %26, %25
  call void @qtest_memread(ptr noundef %24, i64 noundef %27, ptr noundef %20, i64 noundef %23) #14
  %28 = load i64, ptr %8, align 8
  %29 = add i64 %28, %23
  store i64 %29, ptr %8, align 8
  br label %30

30:                                               ; preds = %16, %15
  %31 = load ptr, ptr @alloc, align 8
  %32 = getelementptr inbounds nuw i8, ptr %0, i64 24
  %33 = load i64, ptr %32, align 8
  call void @guest_free(ptr noundef %31, i64 noundef %33) #14
  %34 = load ptr, ptr @alloc, align 8
  %35 = load i64, ptr %6, align 8
  call void @guest_free(ptr noundef %34, i64 noundef %35) #14
  call void @g_free(ptr noundef nonnull %0) #14
  call void @llvm.lifetime.end.p0(i64 2, ptr nonnull %4) #14
  ret void
}